target datalayout = "e-m:e-p270:32:32-p271:32:32-p272:64:64-i64:64-i128:128-f80:128-n8:16:32:64-S128"
target triple = "x86_64-pc-linux-gnu"

%struct.HeapTupleData = type { i32, %struct.ItemPointerData, i32, ptr }
%struct.ItemPointerData = type { %struct.BlockIdData, i16 }
%struct.BlockIdData = type { i16, i16 }
%struct.HeapTupleHeaderData = type { %union.anon, %struct.ItemPointerData, i16, i16, i8, [0 x i8] }
%union.anon = type { %struct.HeapTupleFields }
%struct.HeapTupleFields = type { i32, i32, %union.anon.0 }
%union.anon.0 = type { i32 }
%struct.nameData = type { [64 x i8] }
%struct.FormData_pg_type = type { i32, %struct.nameData, i32, i32, i16, i8, i8, i8, i8, i8, i8, i32, i32, i32, i32, i32, i32, i32, i32, i32, i32, i32, i8, i8, i8, i32, i32, i32, i32 }
%struct.FormData_pg_statistic = type { i32, i16, i8, float, i32, float, i16, i16, i16, i16, i16, i32, i32, i32, i32, i32, i32, i32, i32, i32, i32 }
%struct.AttStatsSlot = type { i32, i32, i32, ptr, i32, ptr, i32, ptr, ptr }
%struct.ArrayType = type { i32, i32, i32, i32 }

@.str.1 = private unnamed_addr constant [12 x i8] c"lsyscache.c\00", align 1
@.str.13 = private unnamed_addr constant [32 x i8] c"cache lookup failed for type %u\00", align 1
@__func__.get_attstatsslot = private unnamed_addr constant [17 x i8] c"get_attstatsslot\00", align 1
@.str.20 = private unnamed_addr constant [37 x i8] c"stanumbers is not a 1-D float4 array\00", align 1

; Function Attrs: inlinehint nounwind uwtable
define internal i64 @ObjectIdGetDatum(i32 noundef %0) #2 {
  %2 = alloca i32, align 4
  store i32 %0, ptr %2, align 4
  %3 = load i32, ptr %2, align 4
  %4 = zext i32 %3 to i64
  ret i64 %4
}

; Function Attrs: inlinehint nounwind uwtable
define internal ptr @DatumGetPointer(i64 noundef %0) #2 {
  %2 = alloca i64, align 8
  store i64 %0, ptr %2, align 8
  %3 = load i64, ptr %2, align 8
  %4 = inttoptr i64 %3 to ptr
  ret ptr %4
}

; Function Attrs: inlinehint nounwind uwtable
define internal ptr @GETSTRUCT(ptr noundef %0) #2 {
  %2 = alloca ptr, align 8
  store ptr %0, ptr %2, align 8
  %3 = load ptr, ptr %2, align 8
  %4 = getelementptr inbounds nuw %struct.HeapTupleData, ptr %3, i32 0, i32 3
  %5 = load ptr, ptr %4, align 8
  %6 = load ptr, ptr %2, align 8
  %7 = getelementptr inbounds nuw %struct.HeapTupleData, ptr %6, i32 0, i32 3
  %8 = load ptr, ptr %7, align 8
  %9 = getelementptr inbounds nuw %struct.HeapTupleHeaderData, ptr %8, i32 0, i32 4
  %10 = load i8, ptr %9, align 2
  %11 = zext i8 %10 to i32
  %12 = sext i32 %11 to i64
  %13 = getelementptr inbounds i8, ptr %5, i64 %12
  ret ptr %13
}

; Function Attrs: nounwind uwtable
define dso_local zeroext i1 @get_attstatsslot(ptr noundef %0, ptr noundef %1, i32 noundef %2, i32 noundef %3, i32 noundef %4) #0 {
  %6 = alloca i1, align 1
  %7 = alloca ptr, align 8
  %8 = alloca ptr, align 8
  %9 = alloca i32, align 4
  %10 = alloca i32, align 4
  %11 = alloca i32, align 4
  %12 = alloca ptr, align 8
  %13 = alloca i32, align 4
  %14 = alloca i64, align 8
  %15 = alloca ptr, align 8
  %16 = alloca i32, align 4
  %17 = alloca i32, align 4
  %18 = alloca ptr, align 8
  %19 = alloca ptr, align 8
  %20 = alloca i32, align 4
  store ptr %0, ptr %7, align 8
  store ptr %1, ptr %8, align 8
  store i32 %2, ptr %9, align 4
  store i32 %3, ptr %10, align 4
  store i32 %4, ptr %11, align 4
  call void @llvm.lifetime.start.p0(i64 8, ptr %12) #7
  %21 = load ptr, ptr %8, align 8
  %22 = call ptr @GETSTRUCT(ptr noundef %21)
  store ptr %22, ptr %12, align 8
  call void @llvm.lifetime.start.p0(i64 4, ptr %13) #7
  call void @llvm.lifetime.start.p0(i64 8, ptr %14) #7
  call void @llvm.lifetime.start.p0(i64 8, ptr %15) #7
  call void @llvm.lifetime.start.p0(i64 4, ptr %16) #7
  call void @llvm.lifetime.start.p0(i64 4, ptr %17) #7
  call void @llvm.lifetime.start.p0(i64 8, ptr %18) #7
  call void @llvm.lifetime.start.p0(i64 8, ptr %19) #7
  %23 = load ptr, ptr %7, align 8
  call void @llvm.memset.p0.i64(ptr align 8 %23, i8 0, i64 64, i1 false)
  store i32 0, ptr %13, align 4
  br label %24

24:                                               ; preds = %51, %5
  %25 = load i32, ptr %13, align 4
  %26 = icmp slt i32 %25, 5
  br i1 %26, label %27, label %54

27:                                               ; preds = %24
  %28 = load ptr, ptr %12, align 8
  %29 = getelementptr inbounds nuw %struct.FormData_pg_statistic, ptr %28, i32 0, i32 6
  %30 = load i32, ptr %13, align 4
  %31 = sext i32 %30 to i64
  %32 = getelementptr inbounds i16, ptr %29, i64 %31
  %33 = load i16, ptr %32, align 2
  %34 = sext i16 %33 to i32
  %35 = load i32, ptr %9, align 4
  %36 = icmp eq i32 %34, %35
  br i1 %36, label %37, label %50

37:                                               ; preds = %27
  %38 = load i32, ptr %10, align 4
  %39 = icmp eq i32 %38, 0
  br i1 %39, label %49, label %40

40:                                               ; preds = %37
  %41 = load ptr, ptr %12, align 8
  %42 = getelementptr inbounds nuw %struct.FormData_pg_statistic, ptr %41, i32 0, i32 11
  %43 = load i32, ptr %13, align 4
  %44 = sext i32 %43 to i64
  %45 = getelementptr inbounds i32, ptr %42, i64 %44
  %46 = load i32, ptr %45, align 4
  %47 = load i32, ptr %10, align 4
  %48 = icmp eq i32 %46, %47
  br i1 %48, label %49, label %50

49:                                               ; preds = %40, %37
  br label %54

50:                                               ; preds = %40, %27
  br label %51

51:                                               ; preds = %50
  %52 = load i32, ptr %13, align 4
  %53 = add i32 %52, 1
  store i32 %53, ptr %13, align 4
  br label %24, !llvm.loop !16

54:                                               ; preds = %49, %24
  %55 = load i32, ptr %13, align 4
  %56 = icmp sge i32 %55, 5
  br i1 %56, label %57, label %58

57:                                               ; preds = %54
  store i1 false, ptr %6, align 1
  store i32 1, ptr %20, align 4
  br label %218

58:                                               ; preds = %54
  %59 = load ptr, ptr %12, align 8
  %60 = getelementptr inbounds nuw %struct.FormData_pg_statistic, ptr %59, i32 0, i32 11
  %61 = load i32, ptr %13, align 4
  %62 = sext i32 %61 to i64
  %63 = getelementptr inbounds i32, ptr %60, i64 %62
  %64 = load i32, ptr %63, align 4
  %65 = load ptr, ptr %7, align 8
  %66 = getelementptr inbounds nuw %struct.AttStatsSlot, ptr %65, i32 0, i32 0
  store i32 %64, ptr %66, align 8
  %67 = load ptr, ptr %12, align 8
  %68 = getelementptr inbounds nuw %struct.FormData_pg_statistic, ptr %67, i32 0, i32 16
  %69 = load i32, ptr %13, align 4
  %70 = sext i32 %69 to i64
  %71 = getelementptr inbounds i32, ptr %68, i64 %70
  %72 = load i32, ptr %71, align 4
  %73 = load ptr, ptr %7, align 8
  %74 = getelementptr inbounds nuw %struct.AttStatsSlot, ptr %73, i32 0, i32 1
  store i32 %72, ptr %74, align 4
  %75 = load i32, ptr %11, align 4
  %76 = and i32 %75, 1
  %77 = icmp ne i32 %76, 0
  br i1 %77, label %78, label %141

78:                                               ; preds = %58
  %79 = load ptr, ptr %8, align 8
  %80 = load i32, ptr %13, align 4
  %81 = add i32 27, %80
  %82 = trunc i32 %81 to i16
  %83 = call i64 @SysCacheGetAttrNotNull(i32 noundef 65, ptr noundef %79, i16 noundef signext %82)
  store i64 %83, ptr %14, align 8
  %84 = load i64, ptr %14, align 8
  %85 = call ptr @DatumGetPointer(i64 noundef %84)
  %86 = call ptr @pg_detoast_datum_copy(ptr noundef %85)
  store ptr %86, ptr %15, align 8
  %87 = load ptr, ptr %15, align 8
  %88 = getelementptr inbounds nuw %struct.ArrayType, ptr %87, i32 0, i32 3
  %89 = load i32, ptr %88, align 4
  store i32 %89, ptr %16, align 4
  %90 = load ptr, ptr %7, align 8
  %91 = getelementptr inbounds nuw %struct.AttStatsSlot, ptr %90, i32 0, i32 2
  store i32 %89, ptr %91, align 8
  %92 = load i32, ptr %16, align 4
  %93 = call i64 @ObjectIdGetDatum(i32 noundef %92)
  %94 = call ptr @SearchSysCache1(i32 noundef 82, i64 noundef %93)
  store ptr %94, ptr %18, align 8
  %95 = load ptr, ptr %18, align 8
  %96 = icmp ne ptr %95, null
  br i1 %96, label %109, label %97

97:                                               ; preds = %78
  br label %98

98:                                               ; preds = %97
  br i1 true, label %99, label %101

99:                                               ; preds = %98
  %100 = call zeroext i1 @errstart_cold(i32 noundef 21, ptr noundef null) #8
  br i1 %100, label %103, label %106

101:                                              ; preds = %98
  %102 = call zeroext i1 @errstart(i32 noundef 21, ptr noundef null)
  br i1 %102, label %103, label %106

103:                                              ; preds = %101, %99
  %104 = load i32, ptr %16, align 4
  %105 = call i32 (ptr, ...) @errmsg_internal(ptr noundef @.str.13, i32 noundef %104)
  call void @errfinish(ptr noundef @.str.1, i32 noundef 3308, ptr noundef @__func__.get_attstatsslot)
  br label %106

106:                                              ; preds = %103, %101, %99
  unreachable

107:                                              ; No predecessors!
  br label %108

108:                                              ; preds = %107
  br label %109

109:                                              ; preds = %108, %78
  %110 = load ptr, ptr %18, align 8
  %111 = call ptr @GETSTRUCT(ptr noundef %110)
  store ptr %111, ptr %19, align 8
  %112 = load ptr, ptr %15, align 8
  %113 = load i32, ptr %16, align 4
  %114 = load ptr, ptr %19, align 8
  %115 = getelementptr inbounds nuw %struct.FormData_pg_type, ptr %114, i32 0, i32 4
  %116 = load i16, ptr %115, align 4
  %117 = sext i16 %116 to i32
  %118 = load ptr, ptr %19, align 8
  %119 = getelementptr inbounds nuw %struct.FormData_pg_type, ptr %118, i32 0, i32 5
  %120 = load i8, ptr %119, align 2, !range !4, !noundef !5
  %121 = trunc i8 %120 to i1
  %122 = load ptr, ptr %19, align 8
  %123 = getelementptr inbounds nuw %struct.FormData_pg_type, ptr %122, i32 0, i32 22
  %124 = load i8, ptr %123, align 4
  %125 = load ptr, ptr %7, align 8
  %126 = getelementptr inbounds nuw %struct.AttStatsSlot, ptr %125, i32 0, i32 3
  %127 = load ptr, ptr %7, align 8
  %128 = getelementptr inbounds nuw %struct.AttStatsSlot, ptr %127, i32 0, i32 4
  call void @deconstruct_array(ptr noundef %112, i32 noundef %113, i32 noundef %117, i1 noundef zeroext %121, i8 noundef signext %124, ptr noundef %126, ptr noundef null, ptr noundef %128)
  %129 = load ptr, ptr %19, align 8
  %130 = getelementptr inbounds nuw %struct.FormData_pg_type, ptr %129, i32 0, i32 5
  %131 = load i8, ptr %130, align 2, !range !4, !noundef !5
  %132 = trunc i8 %131 to i1
  br i1 %132, label %137, label %133

133:                                              ; preds = %109
  %134 = load ptr, ptr %15, align 8
  %135 = load ptr, ptr %7, align 8
  %136 = getelementptr inbounds nuw %struct.AttStatsSlot, ptr %135, i32 0, i32 7
  store ptr %134, ptr %136, align 8
  br label %139

137:                                              ; preds = %109
  %138 = load ptr, ptr %15, align 8
  call void @pfree(ptr noundef %138)
  br label %139

139:                                              ; preds = %137, %133
  %140 = load ptr, ptr %18, align 8
  call void @ReleaseSysCache(ptr noundef %140)
  br label %141

141:                                              ; preds = %139, %58
  %142 = load i32, ptr %11, align 4
  %143 = and i32 %142, 2
  %144 = icmp ne i32 %143, 0
  br i1 %144, label %145, label %217

145:                                              ; preds = %141
  %146 = load ptr, ptr %8, align 8
  %147 = load i32, ptr %13, align 4
  %148 = add i32 22, %147
  %149 = trunc i32 %148 to i16
  %150 = call i64 @SysCacheGetAttrNotNull(i32 noundef 65, ptr noundef %146, i16 noundef signext %149)
  store i64 %150, ptr %14, align 8
  %151 = load i64, ptr %14, align 8
  %152 = call ptr @DatumGetPointer(i64 noundef %151)
  %153 = call ptr @pg_detoast_datum_copy(ptr noundef %152)
  store ptr %153, ptr %15, align 8
  %154 = load ptr, ptr %15, align 8
  %155 = getelementptr inbounds nuw i8, ptr %154, i64 16
  %156 = getelementptr inbounds i32, ptr %155, i64 0
  %157 = load i32, ptr %156, align 4
  store i32 %157, ptr %17, align 4
  %158 = load ptr, ptr %15, align 8
  %159 = getelementptr inbounds nuw %struct.ArrayType, ptr %158, i32 0, i32 1
  %160 = load i32, ptr %159, align 4
  %161 = icmp ne i32 %160, 1
  br i1 %161, label %175, label %162

162:                                              ; preds = %145
  %163 = load i32, ptr %17, align 4
  %164 = icmp sle i32 %163, 0
  br i1 %164, label %175, label %165

165:                                              ; preds = %162
  %166 = load ptr, ptr %15, align 8
  %167 = getelementptr inbounds nuw %struct.ArrayType, ptr %166, i32 0, i32 2
  %168 = load i32, ptr %167, align 4
  %169 = icmp ne i32 %168, 0
  br i1 %169, label %175, label %170

170:                                              ; preds = %165
  %171 = load ptr, ptr %15, align 8
  %172 = getelementptr inbounds nuw %struct.ArrayType, ptr %171, i32 0, i32 3
  %173 = load i32, ptr %172, align 4
  %174 = icmp ne i32 %173, 700
  br i1 %174, label %175, label %186

175:                                              ; preds = %170, %165, %162, %145
  br label %176

176:                                              ; preds = %175
  br i1 true, label %177, label %179

177:                                              ; preds = %176
  %178 = call zeroext i1 @errstart_cold(i32 noundef 21, ptr noundef null) #8
  br i1 %178, label %181, label %183

179:                                              ; preds = %176
  %180 = call zeroext i1 @errstart(i32 noundef 21, ptr noundef null)
  br i1 %180, label %181, label %183

181:                                              ; preds = %179, %177
  %182 = call i32 (ptr, ...) @errmsg_internal(ptr noundef @.str.20)
  call void @errfinish(ptr noundef @.str.1, i32 noundef 3353, ptr noundef @__func__.get_attstatsslot)
  br label %183

183:                                              ; preds = %181, %179, %177
  unreachable

184:                                              ; No predecessors!
  br label %185

185:                                              ; preds = %184
  br label %186

186:                                              ; preds = %185, %170
  %187 = load ptr, ptr %15, align 8
  %188 = load ptr, ptr %15, align 8
  %189 = getelementptr inbounds nuw %struct.ArrayType, ptr %188, i32 0, i32 2
  %190 = load i32, ptr %189, align 4
  %191 = icmp ne i32 %190, 0
  br i1 %191, label %192, label %197

192:                                              ; preds = %186
  %193 = load ptr, ptr %15, align 8
  %194 = getelementptr inbounds nuw %struct.ArrayType, ptr %193, i32 0, i32 2
  %195 = load i32, ptr %194, align 4
  %196 = sext i32 %195 to i64
  br label %206

197:                                              ; preds = %186
  %198 = load ptr, ptr %15, align 8
  %199 = getelementptr inbounds nuw %struct.ArrayType, ptr %198, i32 0, i32 1
  %200 = load i32, ptr %199, align 4
  %201 = sext i32 %200 to i64
  %202 = mul i64 8, %201
  %203 = add i64 16, %202
  %204 = add i64 %203, 7
  %205 = and i64 %204, -8
  br label %206

206:                                              ; preds = %197, %192
  %207 = phi i64 [ %196, %192 ], [ %205, %197 ]
  %208 = getelementptr inbounds nuw i8, ptr %187, i64 %207
  %209 = load ptr, ptr %7, align 8
  %210 = getelementptr inbounds nuw %struct.AttStatsSlot, ptr %209, i32 0, i32 5
  store ptr %208, ptr %210, align 8
  %211 = load i32, ptr %17, align 4
  %212 = load ptr, ptr %7, align 8
  %213 = getelementptr inbounds nuw %struct.AttStatsSlot, ptr %212, i32 0, i32 6
  store i32 %211, ptr %213, align 8
  %214 = load ptr, ptr %15, align 8
  %215 = load ptr, ptr %7, align 8
  %216 = getelementptr inbounds nuw %struct.AttStatsSlot, ptr %215, i32 0, i32 8
  store ptr %214, ptr %216, align 8
  br label %217

217:                                              ; preds = %206, %141
  store i1 true, ptr %6, align 1
  store i32 1, ptr %20, align 4
  br label %218

218:                                              ; preds = %217, %57
  call void @llvm.lifetime.end.p0(i64 8, ptr %19) #7
  call void @llvm.lifetime.end.p0(i64 8, ptr %18) #7
  call void @llvm.lifetime.end.p0(i64 4, ptr %17) #7
  call void @llvm.lifetime.end.p0(i64 4, ptr %16) #7
  call void @llvm.lifetime.end.p0(i64 8, ptr %15) #7
  call void @llvm.lifetime.end.p0(i64 8, ptr %14) #7
  call void @llvm.lifetime.end.p0(i64 4, ptr %13) #7
  call void @llvm.lifetime.end.p0(i64 8, ptr %12) #7
  %219 = load i1, ptr %6, align 1
  ret i1 %219
}