; Function Attrs: nounwind uwtable
define dso_local noundef zeroext i1 @get_attstatsslot(ptr noundef initializes((0, 64)) %0, ptr noundef %1, i32 noundef %2, i32 noundef %3, i32 noundef %4) local_unnamed_addr #0 {
  %6 = getelementptr i8, ptr %1, i64 16
  %.val69 = load ptr, ptr %6, align 8
  %7 = getelementptr inbounds nuw i8, ptr %.val69, i64 22
  %8 = load i8, ptr %7, align 2
  %9 = zext i8 %8 to i64
  %10 = getelementptr inbounds nuw i8, ptr %.val69, i64 %9
  tail call void @llvm.memset.p0.i64(ptr noundef nonnull align 8 dereferenceable(64) %0, i8 0, i64 64, i1 false)
  %11 = getelementptr inbounds nuw i8, ptr %10, i64 20
  %12 = icmp eq i32 %3, 0
  %13 = getelementptr inbounds nuw i8, ptr %10, i64 32
  br i1 %12, label %.split.us, label %.split

.split.us:                                        ; preds = %5
  %14 = load i16, ptr %11, align 2
  %15 = sext i16 %14 to i32
  %16 = icmp eq i32 %2, %15
  br i1 %16, label %.split74.us, label %.lr.ph

17:                                               ; preds = %.lr.ph
  %indvars.iv.next87 = add nuw nsw i64 %indvars.iv86, 1
  %18 = getelementptr inbounds nuw i16, ptr %11, i64 %indvars.iv.next87
  %19 = load i16, ptr %18, align 2
  %20 = sext i16 %19 to i32
  %21 = icmp eq i32 %2, %20
  br i1 %21, label %.split74.us.loopexit, label %.lr.ph, !llvm.loop !16

.lr.ph:                                           ; preds = %.split.us, %17
  %indvars.iv86 = phi i64 [ %indvars.iv.next87, %17 ], [ 0, %.split.us ]
  %exitcond89.not = icmp eq i64 %indvars.iv86, 4
  br i1 %exitcond89.not, label %.loopexit, label %17, !llvm.loop !16

.split:                                           ; preds = %5, %30
  %indvars.iv = phi i64 [ %indvars.iv.next, %30 ], [ 0, %5 ]
  %22 = getelementptr inbounds nuw i16, ptr %11, i64 %indvars.iv
  %23 = load i16, ptr %22, align 2
  %24 = sext i16 %23 to i32
  %25 = icmp eq i32 %2, %24
  br i1 %25, label %26, label %30

26:                                               ; preds = %.split
  %27 = getelementptr inbounds nuw i32, ptr %13, i64 %indvars.iv
  %28 = load i32, ptr %27, align 4
  %29 = icmp eq i32 %28, %3
  br i1 %29, label %.split74.us.loopexit82, label %30

30:                                               ; preds = %.split, %26
  %indvars.iv.next = add nuw nsw i64 %indvars.iv, 1
  %exitcond.not = icmp eq i64 %indvars.iv.next, 5
  br i1 %exitcond.not, label %.loopexit, label %.split, !llvm.loop !16

.split74.us.loopexit:                             ; preds = %17
  %31 = trunc nuw nsw i64 %indvars.iv.next87 to i32
  br label %.split74.us

.split74.us.loopexit82:                           ; preds = %26
  %32 = trunc nuw nsw i64 %indvars.iv to i32
  br label %.split74.us

.split74.us:                                      ; preds = %.split74.us.loopexit82, %.split74.us.loopexit, %.split.us
  %.us-phi = phi i32 [ 0, %.split.us ], [ %31, %.split74.us.loopexit ], [ %32, %.split74.us.loopexit82 ]
  %33 = zext nneg i32 %.us-phi to i64
  %34 = getelementptr inbounds nuw i32, ptr %13, i64 %33
  %35 = load i32, ptr %34, align 4
  store i32 %35, ptr %0, align 8
  %36 = getelementptr inbounds nuw i8, ptr %10, i64 52
  %37 = getelementptr inbounds nuw i32, ptr %36, i64 %33
  %38 = load i32, ptr %37, align 4
  %39 = getelementptr inbounds nuw i8, ptr %0, i64 4
  store i32 %38, ptr %39, align 4
  %40 = and i32 %4, 1
  %.not = icmp eq i32 %40, 0
  br i1 %.not, label %77, label %41

41:                                               ; preds = %.split74.us
  %42 = trunc nuw i32 %.us-phi to i16
  %43 = add nuw nsw i16 %42, 27
  %44 = tail call i64 @SysCacheGetAttrNotNull(i32 noundef 65, ptr noundef %1, i16 noundef signext %43) #8
  %45 = inttoptr i64 %44 to ptr
  %46 = tail call ptr @pg_detoast_datum_copy(ptr noundef %45) #8
  %47 = getelementptr inbounds nuw i8, ptr %46, i64 12
  %48 = load i32, ptr %47, align 4
  %49 = getelementptr inbounds nuw i8, ptr %0, i64 8
  store i32 %48, ptr %49, align 8
  %50 = zext i32 %48 to i64
  %51 = tail call ptr @SearchSysCache1(i32 noundef 82, i64 noundef %50) #8
  %.not65 = icmp eq ptr %51, null
  br i1 %.not65, label %52, label %55

52:                                               ; preds = %41
  %53 = tail call zeroext i1 @errstart_cold(i32 noundef 21, ptr noundef null) #9
  tail call void @llvm.assume(i1 %53)
  %54 = tail call i32 (ptr, ...) @errmsg_internal(ptr noundef nonnull @.str.13, i32 noundef %48) #8
  tail call void @errfinish(ptr noundef nonnull @.str.1, i32 noundef 3308, ptr noundef nonnull @__func__.get_attstatsslot) #8
  unreachable

55:                                               ; preds = %41
  %56 = getelementptr i8, ptr %51, i64 16
  %.val = load ptr, ptr %56, align 8
  %57 = getelementptr inbounds nuw i8, ptr %.val, i64 22
  %58 = load i8, ptr %57, align 2
  %59 = zext i8 %58 to i64
  %60 = getelementptr inbounds nuw i8, ptr %.val, i64 %59
  %61 = getelementptr inbounds nuw i8, ptr %60, i64 76
  %62 = load i16, ptr %61, align 4
  %63 = sext i16 %62 to i32
  %64 = getelementptr inbounds nuw i8, ptr %60, i64 78
  %65 = load i8, ptr %64, align 2, !range !14, !noundef !15
  %66 = trunc nuw i8 %65 to i1
  %67 = getelementptr inbounds nuw i8, ptr %60, i64 128
  %68 = load i8, ptr %67, align 4
  %69 = getelementptr inbounds nuw i8, ptr %0, i64 16
  %70 = getelementptr inbounds nuw i8, ptr %0, i64 24
  tail call void @deconstruct_array(ptr noundef nonnull %46, i32 noundef %48, i32 noundef %63, i1 noundef zeroext %66, i8 noundef signext %68, ptr noundef nonnull %69, ptr noundef null, ptr noundef nonnull %70) #8
  %71 = load i8, ptr %64, align 2, !range !14, !noundef !15
  %72 = trunc nuw i8 %71 to i1
  br i1 %72, label %75, label %73

73:                                               ; preds = %55
  %74 = getelementptr inbounds nuw i8, ptr %0, i64 48
  store ptr %46, ptr %74, align 8
  br label %76

75:                                               ; preds = %55
  tail call void @pfree(ptr noundef nonnull %46) #8
  br label %76

76:                                               ; preds = %75, %73
  tail call void @ReleaseSysCache(ptr noundef nonnull %51) #8
  br label %77

77:                                               ; preds = %76, %.split74.us
  %78 = and i32 %4, 2
  %.not66 = icmp eq i32 %78, 0
  br i1 %.not66, label %.loopexit, label %79

79:                                               ; preds = %77
  %80 = trunc nuw i32 %.us-phi to i16
  %81 = add nuw nsw i16 %80, 22
  %82 = tail call i64 @SysCacheGetAttrNotNull(i32 noundef 65, ptr noundef %1, i16 noundef signext %81) #8
  %83 = inttoptr i64 %82 to ptr
  %84 = tail call ptr @pg_detoast_datum_copy(ptr noundef %83) #8
  %85 = getelementptr inbounds nuw i8, ptr %84, i64 16
  %86 = load i32, ptr %85, align 4
  %87 = getelementptr inbounds nuw i8, ptr %84, i64 4
  %88 = load i32, ptr %87, align 4
  %89 = icmp ne i32 %88, 1
  %90 = icmp slt i32 %86, 1
  %or.cond = select i1 %89, i1 true, i1 %90
  br i1 %or.cond, label %97, label %91

91:                                               ; preds = %79
  %92 = getelementptr inbounds nuw i8, ptr %84, i64 8
  %93 = load i32, ptr %92, align 4
  %.not67 = icmp eq i32 %93, 0
  br i1 %.not67, label %94, label %97

94:                                               ; preds = %91
  %95 = getelementptr inbounds nuw i8, ptr %84, i64 12
  %96 = load i32, ptr %95, align 4
  %.not68 = icmp eq i32 %96, 700
  br i1 %.not68, label %100, label %97

97:                                               ; preds = %94, %91, %79
  %98 = tail call zeroext i1 @errstart_cold(i32 noundef 21, ptr noundef null) #9
  tail call void @llvm.assume(i1 %98)
  %99 = tail call i32 (ptr, ...) @errmsg_internal(ptr noundef nonnull @.str.20) #8
  tail call void @errfinish(ptr noundef nonnull @.str.1, i32 noundef 3353, ptr noundef nonnull @__func__.get_attstatsslot) #8
  unreachable

100:                                              ; preds = %94
  %101 = getelementptr inbounds nuw i8, ptr %84, i64 24
  %102 = getelementptr inbounds nuw i8, ptr %0, i64 32
  store ptr %101, ptr %102, align 8
  %103 = getelementptr inbounds nuw i8, ptr %0, i64 40
  store i32 %86, ptr %103, align 8
  %104 = getelementptr inbounds nuw i8, ptr %0, i64 56
  store ptr %84, ptr %104, align 8
  br label %.loopexit

.loopexit:                                        ; preds = %30, %.lr.ph, %77, %100
  %105 = phi i1 [ true, %77 ], [ true, %100 ], [ false, %.lr.ph ], [ false, %30 ]
  ret i1 %105
}